target datalayout = "e-m:e-p270:32:32-p271:32:32-p272:64:64-i64:64-i128:128-f80:128-n8:16:32:64-S128"
target triple = "x86_64-pc-linux-gnu"

%"class.clang::Preprocessor" = type { %"class.llvm::unique_function", %"class.std::shared_ptr", ptr, ptr, ptr, ptr, ptr, ptr, %"class.std::unique_ptr", ptr, ptr, ptr, %"class.llvm::BumpPtrAllocatorImpl", ptr, ptr, ptr, ptr, ptr, ptr, ptr, ptr, ptr, ptr, ptr, ptr, ptr, ptr, ptr, ptr, ptr, ptr, ptr, ptr, ptr, ptr, ptr, ptr, ptr, ptr, ptr, ptr, ptr, ptr, ptr, ptr, ptr, ptr, ptr, ptr, ptr, %"class.clang::SourceLocation", %"class.clang::SourceLocation", i32, %"class.clang::SourceLocation", i32, i32, i16, i8, i8, %"class.clang::IdentifierTable", %"class.clang::SelectorTable", %"class.std::unique_ptr.9", %"class.std::unique_ptr.17", %"class.std::unique_ptr.17", %"class.std::vector", ptr, i8, i32, ptr, ptr, i32, %"class.clang::SourceLocation", %"class.clang::SourceLocation", %"class.clang::SourceLocation", %"class.llvm::SmallVector.25", %"class.llvm::DenseMap", i32, i8, i8, [2 x i8], %"class.clang::Preprocessor::StdCXXImportSeq", %"class.clang::Preprocessor::TrackGMF", %"class.clang::Preprocessor::ModuleDeclSeq", i8, [7 x i8], %"struct.std::pair", %"class.clang::SourceLocation", %"class.clang::SourceLocation", i8, ptr, %"class.clang::SourceRange", %"class.clang::CustomizableOptional", %"struct.std::pair.33", i8, i32, i32, i8, i32, %"class.clang::SourceLocation", %"class.clang::Preprocessor::PreambleConditionalStackStore", %"class.std::unique_ptr.41", ptr, %"struct.clang::detail::SearchDirIteratorImpl", %"class.std::unique_ptr.49", ptr, ptr, %"class.std::vector.57", %"class.std::unique_ptr.62", %"class.llvm::SmallVector.70", %"class.llvm::SmallVector.75", %"class.std::map", %"struct.clang::Preprocessor::SubmoduleState", ptr, %"class.llvm::DenseSet", %"class.llvm::SmallSetVector", %"class.llvm::FoldingSet", %"class.llvm::SmallVector.104", %"class.llvm::DenseMap.109", %"class.llvm::SmallDenseSet", %"class.llvm::DenseMap.114", ptr, %"class.llvm::DenseMap.117", i32, i32, i32, i32, i32, i32, i32, i32, i32, i32, i32, i32, i32, i32, i32, i32, %"class.std::__cxx11::basic_string", %"class.clang::FileID", %"class.clang::FileID", i8, i8, i32, [8 x %"class.std::unique_ptr.49"], %"class.llvm::SmallVector.120", %"class.std::vector.125", ptr, %"class.llvm::SmallVector.130", i64, %"class.std::vector.132", %"class.std::vector.137", i8, [7 x i8], %"class.llvm::DenseMap.142", %"class.llvm::DenseMap.145", ptr, ptr, ptr, ptr, ptr, ptr, ptr, ptr, ptr, i8, %"class.clang::SourceLocation", %"class.llvm::SmallVector.148", %struct.anon }
%"class.llvm::unique_function" = type { %"class.llvm::detail::UniqueFunctionBase" }
%"class.llvm::detail::UniqueFunctionBase" = type { %"union.llvm::detail::UniqueFunctionBase<void, const clang::Token &>::StorageUnionT", %"class.llvm::PointerIntPair" }
%"union.llvm::detail::UniqueFunctionBase<void, const clang::Token &>::StorageUnionT" = type { %"struct.llvm::detail::UniqueFunctionBase<void, const clang::Token &>::StorageUnionT::OutOfLineStorageT" }
%"struct.llvm::detail::UniqueFunctionBase<void, const clang::Token &>::StorageUnionT::OutOfLineStorageT" = type { ptr, i64, i64 }
%"class.llvm::PointerIntPair" = type { %"struct.llvm::detail::PunnedPointer" }
%"struct.llvm::detail::PunnedPointer" = type { [8 x i8] }
%"class.std::shared_ptr" = type { %"class.std::__shared_ptr" }
%"class.std::__shared_ptr" = type { ptr, %"class.std::__shared_count" }
%"class.std::__shared_count" = type { ptr }
%"class.std::unique_ptr" = type { %"struct.std::__uniq_ptr_data" }
%"struct.std::__uniq_ptr_data" = type { %"class.std::__uniq_ptr_impl" }
%"class.std::__uniq_ptr_impl" = type { %"class.std::tuple" }
%"class.std::tuple" = type { %"struct.std::_Tuple_impl" }
%"struct.std::_Tuple_impl" = type { %"struct.std::_Head_base.1" }
%"struct.std::_Head_base.1" = type { ptr }
%"class.llvm::BumpPtrAllocatorImpl" = type { ptr, ptr, %"class.llvm::SmallVector", %"class.llvm::SmallVector.3", i64, i64 }
%"class.llvm::SmallVector" = type { %"class.llvm::SmallVectorImpl", %"struct.llvm::SmallVectorStorage" }
%"class.llvm::SmallVectorImpl" = type { %"class.llvm::SmallVectorTemplateBase" }
%"class.llvm::SmallVectorTemplateBase" = type { %"class.llvm::SmallVectorTemplateCommon" }
%"class.llvm::SmallVectorTemplateCommon" = type { %"class.llvm::SmallVectorBase" }
%"class.llvm::SmallVectorBase" = type { ptr, i32, i32 }
%"struct.llvm::SmallVectorStorage" = type { [32 x i8] }
%"class.llvm::SmallVector.3" = type { %"class.llvm::SmallVectorImpl.4" }
%"class.llvm::SmallVectorImpl.4" = type { %"class.llvm::SmallVectorTemplateBase.5" }
%"class.llvm::SmallVectorTemplateBase.5" = type { %"class.llvm::SmallVectorTemplateCommon.6" }
%"class.llvm::SmallVectorTemplateCommon.6" = type { %"class.llvm::SmallVectorBase" }
%"class.clang::IdentifierTable" = type { %"class.llvm::StringMap", ptr }
%"class.llvm::StringMap" = type { %"class.llvm::StringMapImpl", %"class.llvm::detail::AllocatorHolder.8" }
%"class.llvm::StringMapImpl" = type { ptr, i32, i32, i32, i32 }
%"class.llvm::detail::AllocatorHolder.8" = type { %"class.llvm::BumpPtrAllocatorImpl" }
%"class.clang::SelectorTable" = type { ptr }
%"class.std::unique_ptr.9" = type { %"struct.std::__uniq_ptr_data.10" }
%"struct.std::__uniq_ptr_data.10" = type { %"class.std::__uniq_ptr_impl.11" }
%"class.std::__uniq_ptr_impl.11" = type { %"class.std::tuple.12" }
%"class.std::tuple.12" = type { %"struct.std::_Tuple_impl.13" }
%"struct.std::_Tuple_impl.13" = type { %"struct.std::_Head_base.16" }
%"struct.std::_Head_base.16" = type { ptr }
%"class.std::unique_ptr.17" = type { %"struct.std::__uniq_ptr_data.18" }
%"struct.std::__uniq_ptr_data.18" = type { %"class.std::__uniq_ptr_impl.19" }
%"class.std::__uniq_ptr_impl.19" = type { %"class.std::tuple.20" }
%"class.std::tuple.20" = type { %"struct.std::_Tuple_impl.21" }
%"struct.std::_Tuple_impl.21" = type { %"struct.std::_Head_base.24" }
%"struct.std::_Head_base.24" = type { ptr }
%"class.std::vector" = type { %"struct.std::_Vector_base" }
%"struct.std::_Vector_base" = type { %"struct.std::_Vector_base<clang::CommentHandler *, std::allocator<clang::CommentHandler *>>::_Vector_impl" }
%"struct.std::_Vector_base<clang::CommentHandler *, std::allocator<clang::CommentHandler *>>::_Vector_impl" = type { %"struct.std::_Vector_base<clang::CommentHandler *, std::allocator<clang::CommentHandler *>>::_Vector_impl_data" }
%"struct.std::_Vector_base<clang::CommentHandler *, std::allocator<clang::CommentHandler *>>::_Vector_impl_data" = type { ptr, ptr, ptr }
%"class.llvm::SmallVector.25" = type { %"class.llvm::SmallVectorImpl.26", %"struct.llvm::SmallVectorStorage.29" }
%"class.llvm::SmallVectorImpl.26" = type { %"class.llvm::SmallVectorTemplateBase.27" }
%"class.llvm::SmallVectorTemplateBase.27" = type { %"class.llvm::SmallVectorTemplateCommon.28" }
%"class.llvm::SmallVectorTemplateCommon.28" = type { %"class.llvm::SmallVectorBase" }
%"struct.llvm::SmallVectorStorage.29" = type { [32 x i8] }
%"class.llvm::DenseMap" = type <{ ptr, i32, i32, i32, [4 x i8] }>
%"class.clang::Preprocessor::StdCXXImportSeq" = type <{ i32, i8, [3 x i8] }>
%"class.clang::Preprocessor::TrackGMF" = type { i32 }
%"class.clang::Preprocessor::ModuleDeclSeq" = type { i32, %"class.std::__cxx11::basic_string" }
%"struct.std::pair" = type <{ ptr, %"class.clang::SourceLocation", [4 x i8] }>
%"class.clang::SourceRange" = type { %"class.clang::SourceLocation", %"class.clang::SourceLocation" }
%"class.clang::CustomizableOptional" = type { %"class.clang::optional_detail::OptionalStorage" }
%"class.clang::optional_detail::OptionalStorage" = type { %"class.clang::FileMgr::MapEntryOptionalStorage" }
%"class.clang::FileMgr::MapEntryOptionalStorage" = type { %"class.clang::DirectoryEntryRef" }
%"class.clang::DirectoryEntryRef" = type { ptr }
%"struct.std::pair.33" = type <{ i32, i8, [3 x i8] }>
%"class.clang::Preprocessor::PreambleConditionalStackStore" = type <{ %"class.std::optional", [4 x i8], %"class.llvm::SmallVector.36", i32, [4 x i8] }>
%"class.std::optional" = type { %"struct.std::_Optional_base" }
%"struct.std::_Optional_base" = type { %"struct.std::_Optional_payload" }
%"struct.std::_Optional_payload" = type { %"struct.std::_Optional_payload_base.base", [3 x i8] }
%"struct.std::_Optional_payload_base.base" = type <{ %"union.std::_Optional_payload_base<clang::Preprocessor::PreambleSkipInfo>::_Storage", i8 }>
%"union.std::_Optional_payload_base<clang::Preprocessor::PreambleSkipInfo>::_Storage" = type { %"struct.clang::Preprocessor::PreambleSkipInfo" }
%"struct.clang::Preprocessor::PreambleSkipInfo" = type { %"class.clang::SourceLocation", %"class.clang::SourceLocation", i8, i8, %"class.clang::SourceLocation" }
%"class.llvm::SmallVector.36" = type { %"class.llvm::SmallVectorImpl.37", %"struct.llvm::SmallVectorStorage.40" }
%"class.llvm::SmallVectorImpl.37" = type { %"class.llvm::SmallVectorTemplateBase.38" }
%"class.llvm::SmallVectorTemplateBase.38" = type { %"class.llvm::SmallVectorTemplateCommon.39" }
%"class.llvm::SmallVectorTemplateCommon.39" = type { %"class.llvm::SmallVectorBase" }
%"struct.llvm::SmallVectorStorage.40" = type { [32 x i8] }
%"class.std::unique_ptr.41" = type { %"struct.std::__uniq_ptr_data.42" }
%"struct.std::__uniq_ptr_data.42" = type { %"class.std::__uniq_ptr_impl.43" }
%"class.std::__uniq_ptr_impl.43" = type { %"class.std::tuple.44" }
%"class.std::tuple.44" = type { %"struct.std::_Tuple_impl.45" }
%"struct.std::_Tuple_impl.45" = type { %"struct.std::_Head_base.48" }
%"struct.std::_Head_base.48" = type { ptr }
%"struct.clang::detail::SearchDirIteratorImpl" = type { ptr, i64 }
%"class.std::unique_ptr.49" = type { %"struct.std::__uniq_ptr_data.50" }
%"struct.std::__uniq_ptr_data.50" = type { %"class.std::__uniq_ptr_impl.51" }
%"class.std::__uniq_ptr_impl.51" = type { %"class.std::tuple.52" }
%"class.std::tuple.52" = type { %"struct.std::_Tuple_impl.53" }
%"struct.std::_Tuple_impl.53" = type { %"struct.std::_Head_base.56" }
%"struct.std::_Head_base.56" = type { ptr }
%"class.std::vector.57" = type { %"struct.std::_Vector_base.58" }
%"struct.std::_Vector_base.58" = type { %"struct.std::_Vector_base<clang::Preprocessor::IncludeStackInfo, std::allocator<clang::Preprocessor::IncludeStackInfo>>::_Vector_impl" }
%"struct.std::_Vector_base<clang::Preprocessor::IncludeStackInfo, std::allocator<clang::Preprocessor::IncludeStackInfo>>::_Vector_impl" = type { %"struct.std::_Vector_base<clang::Preprocessor::IncludeStackInfo, std::allocator<clang::Preprocessor::IncludeStackInfo>>::_Vector_impl_data" }
%"struct.std::_Vector_base<clang::Preprocessor::IncludeStackInfo, std::allocator<clang::Preprocessor::IncludeStackInfo>>::_Vector_impl_data" = type { ptr, ptr, ptr }
%"class.std::unique_ptr.62" = type { %"struct.std::__uniq_ptr_data.63" }
%"struct.std::__uniq_ptr_data.63" = type { %"class.std::__uniq_ptr_impl.64" }
%"class.std::__uniq_ptr_impl.64" = type { %"class.std::tuple.65" }
%"class.std::tuple.65" = type { %"struct.std::_Tuple_impl.66" }
%"struct.std::_Tuple_impl.66" = type { %"struct.std::_Head_base.69" }
%"struct.std::_Head_base.69" = type { ptr }
%"class.llvm::SmallVector.70" = type { %"class.llvm::SmallVectorImpl.71", %"struct.llvm::SmallVectorStorage.74" }
%"class.llvm::SmallVectorImpl.71" = type { %"class.llvm::SmallVectorTemplateBase.72" }
%"class.llvm::SmallVectorTemplateBase.72" = type { %"class.llvm::SmallVectorTemplateCommon.73" }
%"class.llvm::SmallVectorTemplateCommon.73" = type { %"class.llvm::SmallVectorBase" }
%"struct.llvm::SmallVectorStorage.74" = type { [112 x i8] }
%"class.llvm::SmallVector.75" = type { %"class.llvm::SmallVectorImpl.76", %"struct.llvm::SmallVectorStorage.79" }
%"class.llvm::SmallVectorImpl.76" = type { %"class.llvm::SmallVectorTemplateBase.77" }
%"class.llvm::SmallVectorTemplateBase.77" = type { %"class.llvm::SmallVectorTemplateCommon.78" }
%"class.llvm::SmallVectorTemplateCommon.78" = type { %"class.llvm::SmallVectorBase" }
%"struct.llvm::SmallVectorStorage.79" = type { [256 x i8] }
%"class.std::map" = type { %"class.std::_Rb_tree" }
%"class.std::_Rb_tree" = type { %"struct.std::_Rb_tree<clang::Module *, std::pair<clang::Module *const, clang::Preprocessor::SubmoduleState>, std::_Select1st<std::pair<clang::Module *const, clang::Preprocessor::SubmoduleState>>, std::less<clang::Module *>>::_Rb_tree_impl" }
%"struct.std::_Rb_tree<clang::Module *, std::pair<clang::Module *const, clang::Preprocessor::SubmoduleState>, std::_Select1st<std::pair<clang::Module *const, clang::Preprocessor::SubmoduleState>>, std::less<clang::Module *>>::_Rb_tree_impl" = type { [8 x i8], %"struct.std::_Rb_tree_header" }
%"struct.std::_Rb_tree_header" = type { %"struct.std::_Rb_tree_node_base", i64 }
%"struct.std::_Rb_tree_node_base" = type { i32, ptr, ptr, ptr }
%"struct.clang::Preprocessor::SubmoduleState" = type { %"class.llvm::DenseMap.83", %"class.clang::VisibleModuleSet" }
%"class.llvm::DenseMap.83" = type <{ ptr, i32, i32, i32, [4 x i8] }>
%"class.clang::VisibleModuleSet" = type <{ %"class.std::vector.86", i32, [4 x i8] }>
%"class.std::vector.86" = type { %"struct.std::_Vector_base.87" }
%"struct.std::_Vector_base.87" = type { %"struct.std::_Vector_base<clang::SourceLocation, std::allocator<clang::SourceLocation>>::_Vector_impl" }
%"struct.std::_Vector_base<clang::SourceLocation, std::allocator<clang::SourceLocation>>::_Vector_impl" = type { %"struct.std::_Vector_base<clang::SourceLocation, std::allocator<clang::SourceLocation>>::_Vector_impl_data" }
%"struct.std::_Vector_base<clang::SourceLocation, std::allocator<clang::SourceLocation>>::_Vector_impl_data" = type { ptr, ptr, ptr }
%"class.llvm::DenseSet" = type { %"class.llvm::detail::DenseSetImpl" }
%"class.llvm::detail::DenseSetImpl" = type { %"class.llvm::DenseMap.91" }
%"class.llvm::DenseMap.91" = type <{ ptr, i32, i32, i32, [4 x i8] }>
%"class.llvm::SmallSetVector" = type { %"class.llvm::SetVector" }
%"class.llvm::SetVector" = type { %"class.llvm::DenseSet.94", %"class.llvm::SmallVector.99" }
%"class.llvm::DenseSet.94" = type { %"class.llvm::detail::DenseSetImpl.95" }
%"class.llvm::detail::DenseSetImpl.95" = type { %"class.llvm::DenseMap.96" }
%"class.llvm::DenseMap.96" = type <{ ptr, i32, i32, i32, [4 x i8] }>
%"class.llvm::SmallVector.99" = type { %"class.llvm::SmallVectorImpl.100", %"struct.llvm::SmallVectorStorage.103" }
%"class.llvm::SmallVectorImpl.100" = type { %"class.llvm::SmallVectorTemplateBase.101" }
%"class.llvm::SmallVectorTemplateBase.101" = type { %"class.llvm::SmallVectorTemplateCommon.102" }
%"class.llvm::SmallVectorTemplateCommon.102" = type { %"class.llvm::SmallVectorBase" }
%"struct.llvm::SmallVectorStorage.103" = type { [16 x i8] }
%"class.llvm::FoldingSet" = type { %"class.llvm::FoldingSetImpl" }
%"class.llvm::FoldingSetImpl" = type { %"class.llvm::FoldingSetBase" }
%"class.llvm::FoldingSetBase" = type { ptr, i32, i32 }
%"class.llvm::SmallVector.104" = type { %"class.llvm::SmallVectorImpl.105", %"struct.llvm::SmallVectorStorage.108" }
%"class.llvm::SmallVectorImpl.105" = type { %"class.llvm::SmallVectorTemplateBase.106" }
%"class.llvm::SmallVectorTemplateBase.106" = type { %"class.llvm::SmallVectorTemplateCommon.107" }
%"class.llvm::SmallVectorTemplateCommon.107" = type { %"class.llvm::SmallVectorBase" }
%"struct.llvm::SmallVectorStorage.108" = type { [256 x i8] }
%"class.llvm::DenseMap.109" = type <{ ptr, i32, i32, i32, [4 x i8] }>
%"class.llvm::SmallDenseSet" = type { %"class.llvm::detail::DenseSetImpl.112" }
%"class.llvm::detail::DenseSetImpl.112" = type { %"class.llvm::SmallDenseMap" }
%"class.llvm::SmallDenseMap" = type { i32, i32, %"struct.llvm::AlignedCharArrayUnion" }
%"struct.llvm::AlignedCharArrayUnion" = type { [128 x i8] }
%"class.llvm::DenseMap.114" = type <{ ptr, i32, i32, i32, [4 x i8] }>
%"class.llvm::DenseMap.117" = type <{ ptr, i32, i32, i32, [4 x i8] }>
%"class.std::__cxx11::basic_string" = type { %"struct.std::__cxx11::basic_string<char>::_Alloc_hider", i64, %union.anon }
%"struct.std::__cxx11::basic_string<char>::_Alloc_hider" = type { ptr }
%union.anon = type { i64, [8 x i8] }
%"class.clang::FileID" = type { i32 }
%"class.llvm::SmallVector.120" = type { %"class.llvm::SmallVectorImpl.121", %"struct.llvm::SmallVectorStorage.124" }
%"class.llvm::SmallVectorImpl.121" = type { %"class.llvm::SmallVectorTemplateBase.122" }
%"class.llvm::SmallVectorTemplateBase.122" = type { %"class.llvm::SmallVectorTemplateCommon.123" }
%"class.llvm::SmallVectorTemplateCommon.123" = type { %"class.llvm::SmallVectorBase" }
%"struct.llvm::SmallVectorStorage.124" = type { [384 x i8] }
%"class.std::vector.125" = type { %"struct.std::_Vector_base.126" }
%"struct.std::_Vector_base.126" = type { %"struct.std::_Vector_base<std::pair<clang::TokenLexer *, unsigned long>, std::allocator<std::pair<clang::TokenLexer *, unsigned long>>>::_Vector_impl" }
%"struct.std::_Vector_base<std::pair<clang::TokenLexer *, unsigned long>, std::allocator<std::pair<clang::TokenLexer *, unsigned long>>>::_Vector_impl" = type { %"struct.std::_Vector_base<std::pair<clang::TokenLexer *, unsigned long>, std::allocator<std::pair<clang::TokenLexer *, unsigned long>>>::_Vector_impl_data" }
%"struct.std::_Vector_base<std::pair<clang::TokenLexer *, unsigned long>, std::allocator<std::pair<clang::TokenLexer *, unsigned long>>>::_Vector_impl_data" = type { ptr, ptr, ptr }
%"class.llvm::SmallVector.130" = type { %"class.llvm::SmallVectorImpl.121", %"struct.llvm::SmallVectorStorage.131" }
%"struct.llvm::SmallVectorStorage.131" = type { [24 x i8] }
%"class.std::vector.132" = type { %"struct.std::_Vector_base.133" }
%"struct.std::_Vector_base.133" = type { %"struct.std::_Vector_base<unsigned long, std::allocator<unsigned long>>::_Vector_impl" }
%"struct.std::_Vector_base<unsigned long, std::allocator<unsigned long>>::_Vector_impl" = type { %"struct.std::_Vector_base<unsigned long, std::allocator<unsigned long>>::_Vector_impl_data" }
%"struct.std::_Vector_base<unsigned long, std::allocator<unsigned long>>::_Vector_impl_data" = type { ptr, ptr, ptr }
%"class.std::vector.137" = type { %"struct.std::_Vector_base.138" }
%"struct.std::_Vector_base.138" = type { %"struct.std::_Vector_base<std::pair<llvm::SmallVector<clang::Token, 1>, unsigned long>, std::allocator<std::pair<llvm::SmallVector<clang::Token, 1>, unsigned long>>>::_Vector_impl" }
%"struct.std::_Vector_base<std::pair<llvm::SmallVector<clang::Token, 1>, unsigned long>, std::allocator<std::pair<llvm::SmallVector<clang::Token, 1>, unsigned long>>>::_Vector_impl" = type { %"struct.std::_Vector_base<std::pair<llvm::SmallVector<clang::Token, 1>, unsigned long>, std::allocator<std::pair<llvm::SmallVector<clang::Token, 1>, unsigned long>>>::_Vector_impl_data" }
%"struct.std::_Vector_base<std::pair<llvm::SmallVector<clang::Token, 1>, unsigned long>, std::allocator<std::pair<llvm::SmallVector<clang::Token, 1>, unsigned long>>>::_Vector_impl_data" = type { ptr, ptr, ptr }
%"class.llvm::DenseMap.142" = type <{ ptr, i32, i32, i32, [4 x i8] }>
%"class.llvm::DenseMap.145" = type <{ ptr, i32, i32, i32, [4 x i8] }>
%"class.clang::SourceLocation" = type { i32 }
%"class.llvm::SmallVector.148" = type { %"class.llvm::SmallVectorImpl.149", %"struct.llvm::SmallVectorStorage.152" }
%"class.llvm::SmallVectorImpl.149" = type { %"class.llvm::SmallVectorTemplateBase.150" }
%"class.llvm::SmallVectorTemplateBase.150" = type { %"class.llvm::SmallVectorTemplateCommon.151" }
%"class.llvm::SmallVectorTemplateCommon.151" = type { %"class.llvm::SmallVectorBase" }
%"struct.llvm::SmallVectorStorage.152" = type { [128 x i8] }
%struct.anon = type { %"class.llvm::DenseMap.153" }
%"class.llvm::DenseMap.153" = type <{ ptr, i32, i32, i32, [4 x i8] }>
%class.anon.569 = type { ptr }

; Function Attrs: mustprogress nounwind uwtable
define linkonce_odr hidden noundef nonnull align 8 dereferenceable(841) ptr @_ZNK5clang12Preprocessor11getLangOptsEv(ptr noundef nonnull align 8 dereferenceable(3288) %0) #0 comdat align 2 {
  %2 = alloca ptr, align 8
  store ptr %0, ptr %2, align 8
  %3 = load ptr, ptr %2, align 8
  %4 = getelementptr inbounds nuw %"class.clang::Preprocessor", ptr %3, i32 0, i32 3
  %5 = load ptr, ptr %4, align 8
  ret ptr %5
}

; Function Attrs: mustprogress nounwind uwtable
define linkonce_odr hidden noundef nonnull align 8 dereferenceable(489) ptr @_ZNK5clang12Preprocessor13getTargetInfoEv(ptr noundef nonnull align 8 dereferenceable(3288) %0) #0 comdat align 2 {
  %2 = alloca ptr, align 8
  store ptr %0, ptr %2, align 8
  %3 = load ptr, ptr %2, align 8
  %4 = getelementptr inbounds nuw %"class.clang::Preprocessor", ptr %3, i32 0, i32 4
  %5 = load ptr, ptr %4, align 8
  ret ptr %5
}

; Function Attrs: mustprogress nounwind uwtable
define internal noundef i32 @"_ZZN5clang12Preprocessor18ExpandBuiltinMacroERNS_5TokenEENK3$_5clES2_Rb"(ptr noundef nonnull align 8 dereferenceable(8) %0, ptr noundef nonnull align 8 dereferenceable(20) %1, ptr noundef nonnull align 1 dereferenceable(1) %2) #0 align 2 {
  %4 = alloca ptr, align 8
  %5 = alloca ptr, align 8
  %6 = alloca ptr, align 8
  %7 = alloca ptr, align 8
  store ptr %0, ptr %4, align 8
  store ptr %1, ptr %5, align 8
  store ptr %2, ptr %6, align 8
  %8 = load ptr, ptr %4, align 8
  %9 = getelementptr inbounds nuw %class.anon.569, ptr %8, i32 0, i32 0
  %10 = load ptr, ptr %9, align 8
  %11 = load ptr, ptr %5, align 8
  %12 = call noundef ptr @_ZL27ExpectFeatureIdentifierInfoRN5clang5TokenERNS_12PreprocessorEi(ptr noundef nonnull align 8 dereferenceable(20) %11, ptr noundef nonnull align 8 dereferenceable(3288) %10, i32 noundef 1041)
  store ptr %12, ptr %7, align 8
  %13 = load ptr, ptr %7, align 8
  %14 = icmp ne ptr %13, null
  br i1 %14, label %15, label %20

15:                                               ; preds = %3
  %16 = load ptr, ptr %7, align 8
  %17 = call noundef nonnull align 8 dereferenceable(489) ptr @_ZNK5clang12Preprocessor13getTargetInfoEv(ptr noundef nonnull align 8 dereferenceable(3288) %10)
  %18 = call noundef nonnull align 8 dereferenceable(841) ptr @_ZNK5clang12Preprocessor11getLangOptsEv(ptr noundef nonnull align 8 dereferenceable(3288) %10)
  %19 = call noundef i32 @_ZN5clang12hasAttributeENS_19AttributeCommonInfo6SyntaxEPKNS_14IdentifierInfoES4_RKNS_10TargetInfoERKNS_11LangOptionsE(i32 noundef 1, ptr noundef null, ptr noundef %16, ptr noundef nonnull align 8 dereferenceable(489) %17, ptr noundef nonnull align 8 dereferenceable(841) %18)
  br label %21

20:                                               ; preds = %3
  br label %21

21:                                               ; preds = %20, %15
  %22 = phi i32 [ %19, %15 ], [ 0, %20 ]
  ret i32 %22
}

; Function Attrs: mustprogress nounwind uwtable
define internal noundef i32 @"_ZN4llvm12function_refIFiRN5clang5TokenERbEE11callback_fnIZNS1_12Preprocessor18ExpandBuiltinMacroES3_E3$_5EEilS3_S4_"(i64 noundef %0, ptr noundef nonnull align 8 dereferenceable(20) %1, ptr noundef nonnull align 1 dereferenceable(1) %2) #0 align 2 {
  %4 = alloca i64, align 8
  %5 = alloca ptr, align 8
  %6 = alloca ptr, align 8
  store i64 %0, ptr %4, align 8
  store ptr %1, ptr %5, align 8
  store ptr %2, ptr %6, align 8
  %7 = load i64, ptr %4, align 8
  %8 = inttoptr i64 %7 to ptr
  %9 = load ptr, ptr %5, align 8
  %10 = load ptr, ptr %6, align 8
  %11 = call noundef i32 @"_ZZN5clang12Preprocessor18ExpandBuiltinMacroERNS_5TokenEENK3$_5clES2_Rb"(ptr noundef nonnull align 8 dereferenceable(8) %8, ptr noundef nonnull align 8 dereferenceable(20) %9, ptr noundef nonnull align 1 dereferenceable(1) %10)
  ret i32 %11
}