; Function Attrs: mustprogress nounwind uwtable
define internal noundef i32 @"_ZN4llvm12function_refIFiRN5clang5TokenERbEE11callback_fnIZNS1_12Preprocessor18ExpandBuiltinMacroES3_E3$_5EEilS3_S4_"(i64 noundef %0, ptr noundef nonnull readonly align 8 captures(none) dereferenceable(20) %1, ptr nonnull readnone align 1 captures(none) %2) #1 align 2 {
  %4 = inttoptr i64 %0 to ptr
  %.val = load ptr, ptr %4, align 8
  %5 = tail call fastcc noundef ptr @_ZL27ExpectFeatureIdentifierInfoRN5clang5TokenERNS_12PreprocessorEi(ptr noundef nonnull readonly align 8 dereferenceable(20) %1, ptr noundef nonnull readonly align 8 dereferenceable(3288) %.val, i32 noundef 1041)
  %.not.i = icmp eq ptr %5, null
  br i1 %.not.i, label %"_ZZN5clang12Preprocessor18ExpandBuiltinMacroERNS_5TokenEENK3$_5clES2_Rb.exit", label %6

6:                                                ; preds = %3
  %7 = getelementptr inbounds nuw i8, ptr %.val, i64 64
  %8 = load ptr, ptr %7, align 8
  %9 = getelementptr inbounds nuw i8, ptr %.val, i64 56
  %10 = load ptr, ptr %9, align 8
  %11 = tail call noundef i32 @_ZN5clang12hasAttributeENS_19AttributeCommonInfo6SyntaxEPKNS_14IdentifierInfoES4_RKNS_10TargetInfoERKNS_11LangOptionsE(i32 noundef 1, ptr noundef null, ptr noundef nonnull %5, ptr noundef nonnull align 8 dereferenceable(489) %8, ptr noundef nonnull align 8 dereferenceable(841) %10) #19
  br label %"_ZZN5clang12Preprocessor18ExpandBuiltinMacroERNS_5TokenEENK3$_5clES2_Rb.exit"

"_ZZN5clang12Preprocessor18ExpandBuiltinMacroERNS_5TokenEENK3$_5clES2_Rb.exit": ; preds = %3, %6
  %12 = phi i32 [ %11, %6 ], [ 0, %3 ]
  ret i32 %12
}